; Function Attrs: mustprogress nofree norecurse nosync nounwind willreturn memory(argmem: readwrite) uwtable
define void @_ZNK6casadi17SundialsInterface12save_offsetsEPNS_14SundialsMemoryE(ptr nocapture noundef nonnull readnone align 8 dereferenceable(2120) %0, ptr nocapture noundef %1) local_unnamed_addr #10 align 2 {
  %3 = getelementptr inbounds i8, ptr %1, i64 352
  %4 = getelementptr inbounds i8, ptr %1, i64 440
  %5 = load <2 x i64>, ptr %3, align 8
  store <2 x i64> %5, ptr %4, align 8
  %6 = getelementptr inbounds i8, ptr %1, i64 368
  %7 = getelementptr inbounds i8, ptr %1, i64 456
  %8 = load <2 x i64>, ptr %6, align 8
  store <2 x i64> %8, ptr %7, align 8
  %9 = getelementptr inbounds i8, ptr %1, i64 424
  %10 = getelementptr inbounds i8, ptr %1, i64 472
  %11 = load <2 x i64>, ptr %9, align 8
  store <2 x i64> %11, ptr %10, align 8
  ret void
}